target datalayout = "e-m:e-p270:32:32-p271:32:32-p272:64:64-i64:64-i128:128-f80:128-n8:16:32:64-S128"
target triple = "x86_64-pc-linux-gnu"

%"class.WasmEdge::AST::Limit" = type { i8, i32, i32 }
%"class.WasmEdge::AST::MemoryType" = type { %"class.WasmEdge::AST::Limit" }
%"class.fmt::v8::basic_format_string" = type { %"class.fmt::v8::basic_string_view" }
%"class.fmt::v8::basic_string_view" = type { ptr, i64 }
%"class.WasmEdge::Runtime::Instance::MemoryInstance" = type <{ %"class.WasmEdge::AST::MemoryType", [4 x i8], ptr, i32, [4 x i8] }>
%"struct.spdlog::source_loc" = type { ptr, i32, ptr }

@.str.149 = private unnamed_addr constant [62 x i8] c"Create memory instance failed -- exceeded limit page size: {}\00", align 1
@.str.150 = private unnamed_addr constant [37 x i8] c"Unable to find usable memory address\00", align 1

; Function Attrs: mustprogress uwtable
define linkonce_odr hidden void @_ZN6spdlog6logger3logIJRKjEEEvNS_10source_locENS_5level10level_enumEN3fmt2v819basic_format_stringIcJDpNS8_13type_identityIT_E4typeEEEEDpOSB_(ptr noundef nonnull align 8 dereferenceable(208) %0, ptr noundef byval(%"struct.spdlog::source_loc") align 8 %1, i32 noundef %2, ptr %3, i64 %4, ptr noundef nonnull align 4 dereferenceable(4) %5) #1 comdat align 2 {
  %7 = alloca %"class.fmt::v8::basic_string_view", align 8
  %8 = alloca ptr, align 8
  %9 = alloca %"class.fmt::v8::basic_format_string", align 8
  %10 = alloca ptr, align 8
  %11 = alloca i32, align 4
  %12 = alloca ptr, align 8
  %13 = alloca %"struct.spdlog::source_loc", align 8
  %14 = alloca %"class.fmt::v8::basic_string_view", align 8
  %15 = getelementptr inbounds { ptr, i64 }, ptr %9, i32 0, i32 0
  store ptr %3, ptr %15, align 8
  %16 = getelementptr inbounds { ptr, i64 }, ptr %9, i32 0, i32 1
  store i64 %4, ptr %16, align 8
  store ptr %0, ptr %10, align 8
  store i32 %2, ptr %11, align 4
  store ptr %5, ptr %12, align 8
  %17 = load ptr, ptr %10, align 8
  call void @llvm.memcpy.p0.p0.i64(ptr align 8 %13, ptr align 8 %1, i64 24, i1 false)
  %18 = load i32, ptr %11, align 4
  store ptr %9, ptr %8, align 8
  %19 = load ptr, ptr %8, align 8
  call void @llvm.memcpy.p0.p0.i64(ptr align 8 %7, ptr align 8 %19, i64 16, i1 false)
  %20 = load { ptr, i64 }, ptr %7, align 8
  %21 = getelementptr inbounds { ptr, i64 }, ptr %14, i32 0, i32 0
  %22 = extractvalue { ptr, i64 } %20, 0
  store ptr %22, ptr %21, align 8
  %23 = getelementptr inbounds { ptr, i64 }, ptr %14, i32 0, i32 1
  %24 = extractvalue { ptr, i64 } %20, 1
  store i64 %24, ptr %23, align 8
  %25 = load ptr, ptr %12, align 8
  %26 = getelementptr inbounds { ptr, i64 }, ptr %14, i32 0, i32 0
  %27 = load ptr, ptr %26, align 8
  %28 = getelementptr inbounds { ptr, i64 }, ptr %14, i32 0, i32 1
  %29 = load i64, ptr %28, align 8
  call void @_ZN6spdlog6logger4log_IJRKjEEEvNS_10source_locENS_5level10level_enumEN3fmt2v817basic_string_viewIcEEDpOT_(ptr noundef nonnull align 8 dereferenceable(208) %17, ptr noundef byval(%"struct.spdlog::source_loc") align 8 %13, i32 noundef %18, ptr %27, i64 %29, ptr noundef nonnull align 4 dereferenceable(4) %25)
  ret void
}

; Function Attrs: mustprogress nounwind uwtable
define linkonce_odr hidden void @_ZN6spdlog10source_locC2Ev(ptr noundef nonnull align 8 dereferenceable(24) %0) unnamed_addr #0 comdat align 2 {
  %2 = alloca ptr, align 8
  store ptr %0, ptr %2, align 8
  %3 = load ptr, ptr %2, align 8
  %4 = getelementptr inbounds %"struct.spdlog::source_loc", ptr %3, i32 0, i32 0
  store ptr null, ptr %4, align 8
  %5 = getelementptr inbounds %"struct.spdlog::source_loc", ptr %3, i32 0, i32 1
  store i32 0, ptr %5, align 8
  %6 = getelementptr inbounds %"struct.spdlog::source_loc", ptr %3, i32 0, i32 2
  store ptr null, ptr %6, align 8
  ret void
}

; Function Attrs: mustprogress uwtable
define linkonce_odr hidden void @_ZN6spdlog6logger3logIJRKjEEEvNS_5level10level_enumEN3fmt2v819basic_format_stringIcJDpNS7_13type_identityIT_E4typeEEEEDpOSA_(ptr noundef nonnull align 8 dereferenceable(208) %0, i32 noundef %1, ptr %2, i64 %3, ptr noundef nonnull align 4 dereferenceable(4) %4) #1 comdat align 2 {
  %6 = alloca %"class.fmt::v8::basic_format_string", align 8
  %7 = alloca ptr, align 8
  %8 = alloca i32, align 4
  %9 = alloca ptr, align 8
  %10 = alloca %"struct.spdlog::source_loc", align 8
  %11 = alloca %"class.fmt::v8::basic_format_string", align 8
  %12 = getelementptr inbounds { ptr, i64 }, ptr %6, i32 0, i32 0
  store ptr %2, ptr %12, align 8
  %13 = getelementptr inbounds { ptr, i64 }, ptr %6, i32 0, i32 1
  store i64 %3, ptr %13, align 8
  store ptr %0, ptr %7, align 8
  store i32 %1, ptr %8, align 4
  store ptr %4, ptr %9, align 8
  %14 = load ptr, ptr %7, align 8
  call void @llvm.memset.p0.i64(ptr align 8 %10, i8 0, i64 24, i1 false)
  call void @_ZN6spdlog10source_locC2Ev(ptr noundef nonnull align 8 dereferenceable(24) %10) #18
  %15 = load i32, ptr %8, align 4
  call void @llvm.memcpy.p0.p0.i64(ptr align 8 %11, ptr align 8 %6, i64 16, i1 false)
  %16 = load ptr, ptr %9, align 8
  %17 = getelementptr inbounds { ptr, i64 }, ptr %11, i32 0, i32 0
  %18 = load ptr, ptr %17, align 8
  %19 = getelementptr inbounds { ptr, i64 }, ptr %11, i32 0, i32 1
  %20 = load i64, ptr %19, align 8
  call void @_ZN6spdlog6logger3logIJRKjEEEvNS_10source_locENS_5level10level_enumEN3fmt2v819basic_format_stringIcJDpNS8_13type_identityIT_E4typeEEEEDpOSB_(ptr noundef nonnull align 8 dereferenceable(208) %14, ptr noundef byval(%"struct.spdlog::source_loc") align 8 %10, i32 noundef %15, ptr %18, i64 %20, ptr noundef nonnull align 4 dereferenceable(4) %16)
  ret void
}

; Function Attrs: mustprogress uwtable
define linkonce_odr hidden void @_ZN6spdlog6logger5errorIJRKjEEEvN3fmt2v819basic_format_stringIcJDpNS5_13type_identityIT_E4typeEEEEDpOS8_(ptr noundef nonnull align 8 dereferenceable(208) %0, ptr %1, i64 %2, ptr noundef nonnull align 4 dereferenceable(4) %3) #1 comdat align 2 {
  %5 = alloca %"class.fmt::v8::basic_format_string", align 8
  %6 = alloca ptr, align 8
  %7 = alloca ptr, align 8
  %8 = alloca %"class.fmt::v8::basic_format_string", align 8
  %9 = getelementptr inbounds { ptr, i64 }, ptr %5, i32 0, i32 0
  store ptr %1, ptr %9, align 8
  %10 = getelementptr inbounds { ptr, i64 }, ptr %5, i32 0, i32 1
  store i64 %2, ptr %10, align 8
  store ptr %0, ptr %6, align 8
  store ptr %3, ptr %7, align 8
  %11 = load ptr, ptr %6, align 8
  call void @llvm.memcpy.p0.p0.i64(ptr align 8 %8, ptr align 8 %5, i64 16, i1 false)
  %12 = load ptr, ptr %7, align 8
  %13 = getelementptr inbounds { ptr, i64 }, ptr %8, i32 0, i32 0
  %14 = load ptr, ptr %13, align 8
  %15 = getelementptr inbounds { ptr, i64 }, ptr %8, i32 0, i32 1
  %16 = load i64, ptr %15, align 8
  call void @_ZN6spdlog6logger3logIJRKjEEEvNS_5level10level_enumEN3fmt2v819basic_format_stringIcJDpNS7_13type_identityIT_E4typeEEEEDpOSA_(ptr noundef nonnull align 8 dereferenceable(208) %11, i32 noundef 4, ptr %14, i64 %16, ptr noundef nonnull align 4 dereferenceable(4) %12)
  ret void
}

; Function Attrs: mustprogress uwtable
define linkonce_odr hidden void @_ZN6spdlog5errorIA37_cEEvRKT_(ptr noundef nonnull align 1 dereferenceable(37) %0) #1 comdat {
  %2 = alloca ptr, align 8
  store ptr %0, ptr %2, align 8
  %3 = call noundef ptr @_ZN6spdlog18default_logger_rawEv()
  %4 = load ptr, ptr %2, align 8
  call void @_ZN6spdlog6logger5errorIA37_cEEvRKT_(ptr noundef nonnull align 8 dereferenceable(208) %3, ptr noundef nonnull align 1 dereferenceable(37) %4)
  ret void
}

; Function Attrs: mustprogress uwtable
define linkonce_odr hidden void @_ZN6spdlog5errorIJRKjEEEvN3fmt2v819basic_format_stringIcJDpNS4_13type_identityIT_E4typeEEEEDpOS7_(ptr %0, i64 %1, ptr noundef nonnull align 4 dereferenceable(4) %2) #1 comdat {
  %4 = alloca %"class.fmt::v8::basic_format_string", align 8
  %5 = alloca ptr, align 8
  %6 = alloca %"class.fmt::v8::basic_format_string", align 8
  %7 = getelementptr inbounds { ptr, i64 }, ptr %4, i32 0, i32 0
  store ptr %0, ptr %7, align 8
  %8 = getelementptr inbounds { ptr, i64 }, ptr %4, i32 0, i32 1
  store i64 %1, ptr %8, align 8
  store ptr %2, ptr %5, align 8
  %9 = call noundef ptr @_ZN6spdlog18default_logger_rawEv()
  call void @llvm.memcpy.p0.p0.i64(ptr align 8 %6, ptr align 8 %4, i64 16, i1 false)
  %10 = load ptr, ptr %5, align 8
  %11 = getelementptr inbounds { ptr, i64 }, ptr %6, i32 0, i32 0
  %12 = load ptr, ptr %11, align 8
  %13 = getelementptr inbounds { ptr, i64 }, ptr %6, i32 0, i32 1
  %14 = load i64, ptr %13, align 8
  call void @_ZN6spdlog6logger5errorIJRKjEEEvN3fmt2v819basic_format_stringIcJDpNS5_13type_identityIT_E4typeEEEEDpOS8_(ptr noundef nonnull align 8 dereferenceable(208) %9, ptr %12, i64 %14, ptr noundef nonnull align 4 dereferenceable(4) %10)
  ret void
}

; Function Attrs: mustprogress nounwind uwtable
define linkonce_odr hidden noundef i64 @_ZNSt11char_traitsIcE6lengthEPKc(ptr noundef %0) #0 comdat align 2 {
  %2 = alloca ptr, align 8
  store ptr %0, ptr %2, align 8
  %3 = load ptr, ptr %2, align 8
  %4 = call i64 @strlen(ptr noundef %3) #18
  ret i64 %4
}

; Function Attrs: mustprogress nounwind uwtable
define linkonce_odr hidden noundef i32 @_ZNK8WasmEdge3AST5Limit6getMinEv(ptr noundef nonnull align 4 dereferenceable(12) %0) #0 comdat align 2 {
  %2 = alloca ptr, align 8
  store ptr %0, ptr %2, align 8
  %3 = load ptr, ptr %2, align 8
  %4 = getelementptr inbounds %"class.WasmEdge::AST::Limit", ptr %3, i32 0, i32 1
  %5 = load i32, ptr %4, align 4
  ret i32 %5
}

; Function Attrs: mustprogress nounwind uwtable
define linkonce_odr hidden noundef nonnull align 4 dereferenceable(12) ptr @_ZN8WasmEdge3AST10MemoryType8getLimitEv(ptr noundef nonnull align 4 dereferenceable(12) %0) #0 comdat align 2 {
  %2 = alloca ptr, align 8
  store ptr %0, ptr %2, align 8
  %3 = load ptr, ptr %2, align 8
  %4 = getelementptr inbounds %"class.WasmEdge::AST::MemoryType", ptr %3, i32 0, i32 0
  ret ptr %4
}

; Function Attrs: mustprogress nounwind uwtable
define internal noundef ptr @_ZN12_GLOBAL__N_18toMemCxtEPN8WasmEdge7Runtime8Instance14MemoryInstanceE(ptr noundef %0) #0 {
  %2 = alloca ptr, align 8
  store ptr %0, ptr %2, align 8
  %3 = load ptr, ptr %2, align 8
  ret ptr %3
}

; Function Attrs: mustprogress nounwind uwtable
define linkonce_odr hidden void @_ZN8WasmEdge7Runtime8Instance14MemoryInstanceC2ERKNS_3AST10MemoryTypeEj(ptr noundef nonnull align 8 dereferenceable(28) %0, ptr noundef nonnull align 4 dereferenceable(12) %1, i32 noundef %2) unnamed_addr #0 comdat align 2 personality ptr @__gxx_personality_v0 {
  %4 = alloca ptr, align 8
  %5 = alloca ptr, align 8
  %6 = alloca ptr, align 8
  %7 = alloca ptr, align 8
  %8 = alloca ptr, align 8
  %9 = alloca ptr, align 8
  %10 = alloca ptr, align 8
  %11 = alloca i32, align 4
  %12 = alloca %"class.fmt::v8::basic_format_string", align 8
  store ptr %0, ptr %9, align 8
  store ptr %1, ptr %10, align 8
  store i32 %2, ptr %11, align 4
  %13 = load ptr, ptr %9, align 8
  %14 = getelementptr inbounds %"class.WasmEdge::Runtime::Instance::MemoryInstance", ptr %13, i32 0, i32 0
  %15 = load ptr, ptr %10, align 8
  call void @llvm.memcpy.p0.p0.i64(ptr align 8 %14, ptr align 4 %15, i64 12, i1 false)
  %16 = getelementptr inbounds %"class.WasmEdge::Runtime::Instance::MemoryInstance", ptr %13, i32 0, i32 2
  store ptr null, ptr %16, align 8
  %17 = getelementptr inbounds %"class.WasmEdge::Runtime::Instance::MemoryInstance", ptr %13, i32 0, i32 3
  %18 = load i32, ptr %11, align 4
  store i32 %18, ptr %17, align 8
  %19 = getelementptr inbounds %"class.WasmEdge::Runtime::Instance::MemoryInstance", ptr %13, i32 0, i32 0
  %20 = call noundef nonnull align 4 dereferenceable(12) ptr @_ZN8WasmEdge3AST10MemoryType8getLimitEv(ptr noundef nonnull align 4 dereferenceable(12) %19) #18
  %21 = call noundef i32 @_ZNK8WasmEdge3AST5Limit6getMinEv(ptr noundef nonnull align 4 dereferenceable(12) %20) #18
  %22 = getelementptr inbounds %"class.WasmEdge::Runtime::Instance::MemoryInstance", ptr %13, i32 0, i32 3
  %23 = load i32, ptr %22, align 8
  %24 = icmp ugt i32 %21, %23
  br i1 %24, label %25, label %42

25:                                               ; preds = %3
  store ptr %12, ptr %7, align 8
  store ptr @.str.149, ptr %8, align 8
  %26 = load ptr, ptr %7, align 8
  %27 = load ptr, ptr %8, align 8
  store ptr %26, ptr %5, align 8
  store ptr %27, ptr %6, align 8
  %28 = load ptr, ptr %5, align 8
  %29 = load ptr, ptr %6, align 8
  store ptr %29, ptr %28, align 8
  %30 = getelementptr inbounds %"class.fmt::v8::basic_string_view", ptr %28, i32 0, i32 1
  %31 = load ptr, ptr %6, align 8
  %32 = call noundef i64 @_ZNSt11char_traitsIcE6lengthEPKc(ptr noundef %31)
  store i64 %32, ptr %30, align 8
  br label %33

33:                                               ; preds = %25
  %34 = load ptr, ptr %8, align 8
  store ptr %34, ptr %4, align 8
  br label %35

35:                                               ; preds = %33
  %36 = getelementptr inbounds %"class.WasmEdge::Runtime::Instance::MemoryInstance", ptr %13, i32 0, i32 3
  %37 = getelementptr inbounds { ptr, i64 }, ptr %12, i32 0, i32 0
  %38 = load ptr, ptr %37, align 8
  %39 = getelementptr inbounds { ptr, i64 }, ptr %12, i32 0, i32 1
  %40 = load i64, ptr %39, align 8
  invoke void @_ZN6spdlog5errorIJRKjEEEvN3fmt2v819basic_format_stringIcJDpNS4_13type_identityIT_E4typeEEEEDpOS7_(ptr %38, i64 %40, ptr noundef nonnull align 4 dereferenceable(4) %36)
          to label %41 unwind label %54

41:                                               ; preds = %35
  br label %53

42:                                               ; preds = %3
  %43 = getelementptr inbounds %"class.WasmEdge::Runtime::Instance::MemoryInstance", ptr %13, i32 0, i32 0
  %44 = call noundef nonnull align 4 dereferenceable(12) ptr @_ZN8WasmEdge3AST10MemoryType8getLimitEv(ptr noundef nonnull align 4 dereferenceable(12) %43) #18
  %45 = call noundef i32 @_ZNK8WasmEdge3AST5Limit6getMinEv(ptr noundef nonnull align 4 dereferenceable(12) %44) #18
  %46 = call noundef ptr @_ZN8WasmEdge9Allocator8allocateEj(i32 noundef %45) #18
  %47 = getelementptr inbounds %"class.WasmEdge::Runtime::Instance::MemoryInstance", ptr %13, i32 0, i32 2
  store ptr %46, ptr %47, align 8
  %48 = getelementptr inbounds %"class.WasmEdge::Runtime::Instance::MemoryInstance", ptr %13, i32 0, i32 2
  %49 = load ptr, ptr %48, align 8
  %50 = icmp eq ptr %49, null
  br i1 %50, label %51, label %53

51:                                               ; preds = %42
  invoke void @_ZN6spdlog5errorIA37_cEEvRKT_(ptr noundef nonnull align 1 dereferenceable(37) @.str.150)
          to label %52 unwind label %54

52:                                               ; preds = %51
  br label %53

53:                                               ; preds = %52, %42, %41
  ret void

54:                                               ; preds = %51, %35
  %55 = landingpad { ptr, i32 }
          catch ptr null
  %56 = extractvalue { ptr, i32 } %55, 0
  call void @__clang_call_terminate(ptr %56) #19
  unreachable
}

; Function Attrs: mustprogress nounwind uwtable
define internal noundef ptr @_ZN12_GLOBAL__N_114fromMemTypeCxtEPK26WasmEdge_MemoryTypeContext(ptr noundef %0) #0 {
  %2 = alloca ptr, align 8
  store ptr %0, ptr %2, align 8
  %3 = load ptr, ptr %2, align 8
  ret ptr %3
}

; Function Attrs: mustprogress uwtable
define ptr @WasmEdge_MemoryInstanceCreate(ptr noundef %0) #1 {
  %2 = alloca ptr, align 8
  %3 = alloca ptr, align 8
  store ptr %0, ptr %3, align 8
  %4 = load ptr, ptr %3, align 8
  %5 = icmp ne ptr %4, null
  br i1 %5, label %6, label %11

6:                                                ; preds = %1
  %7 = call noalias noundef nonnull ptr @_Znwm(i64 noundef 32) #21
  %8 = load ptr, ptr %3, align 8
  %9 = call noundef ptr @_ZN12_GLOBAL__N_114fromMemTypeCxtEPK26WasmEdge_MemoryTypeContext(ptr noundef %8) #18
  call void @_ZN8WasmEdge7Runtime8Instance14MemoryInstanceC2ERKNS_3AST10MemoryTypeEj(ptr noundef nonnull align 8 dereferenceable(28) %7, ptr noundef nonnull align 4 dereferenceable(12) %9, i32 noundef 65536) #18
  %10 = call noundef ptr @_ZN12_GLOBAL__N_18toMemCxtEPN8WasmEdge7Runtime8Instance14MemoryInstanceE(ptr noundef %7) #18
  store ptr %10, ptr %2, align 8
  br label %12

11:                                               ; preds = %1
  store ptr null, ptr %2, align 8
  br label %12

12:                                               ; preds = %11, %6
  %13 = load ptr, ptr %2, align 8
  ret ptr %13
}