; Function Attrs: mustprogress uwtable
define noundef ptr @WasmEdge_MemoryInstanceCreate(ptr noundef readonly %0) local_unnamed_addr #1 personality ptr @__gxx_personality_v0 {
  %2 = alloca %"struct.spdlog::source_loc", align 8
  %.not = icmp eq ptr %0, null
  br i1 %.not, label %_ZN8WasmEdge7Runtime8Instance14MemoryInstanceC2ERKNS_3AST10MemoryTypeEj.exit, label %3

3:                                                ; preds = %1
  %4 = tail call noalias noundef nonnull dereferenceable(32) ptr @_Znwm(i64 noundef 32) #35
  tail call void @llvm.memcpy.p0.p0.i64(ptr noundef nonnull align 8 dereferenceable(12) %4, ptr noundef nonnull align 4 dereferenceable(12) %0, i64 12, i1 false)
  %5 = getelementptr inbounds i8, ptr %4, i64 16
  store ptr null, ptr %5, align 8
  %6 = getelementptr inbounds i8, ptr %4, i64 24
  store i32 65536, ptr %6, align 8
  %7 = getelementptr inbounds i8, ptr %4, i64 4
  %8 = load i32, ptr %7, align 4
  %9 = icmp ugt i32 %8, 65536
  br i1 %9, label %10, label %12

10:                                               ; preds = %3
  %11 = invoke noundef ptr @_ZN6spdlog18default_logger_rawEv()
          to label %.noexc.i unwind label %17

.noexc.i:                                         ; preds = %10
  call void @llvm.lifetime.start.p0(i64 24, ptr nonnull %2)
  call void @llvm.memset.p0.i64(ptr noundef nonnull align 8 dereferenceable(24) %2, i8 0, i64 24, i1 false)
  invoke void @_ZN6spdlog6logger4log_IJRKjEEEvNS_10source_locENS_5level10level_enumEN3fmt2v817basic_string_viewIcEEDpOT_(ptr noundef nonnull align 8 dereferenceable(208) %11, ptr noundef nonnull byval(%"struct.spdlog::source_loc") align 8 %2, i32 noundef 4, ptr nonnull @.str.149, i64 61, ptr noundef nonnull align 4 dereferenceable(4) %6)
          to label %_ZN6spdlog5errorIJRKjEEEvN3fmt2v819basic_format_stringIcJDpNS4_13type_identityIT_E4typeEEEEDpOS7_.exit.i unwind label %17

_ZN6spdlog5errorIJRKjEEEvN3fmt2v819basic_format_stringIcJDpNS4_13type_identityIT_E4typeEEEEDpOS7_.exit.i: ; preds = %.noexc.i
  call void @llvm.lifetime.end.p0(i64 24, ptr nonnull %2)
  br label %_ZN8WasmEdge7Runtime8Instance14MemoryInstanceC2ERKNS_3AST10MemoryTypeEj.exit

12:                                               ; preds = %3
  %13 = tail call noundef ptr @_ZN8WasmEdge9Allocator8allocateEj(i32 noundef %8) #37
  store ptr %13, ptr %5, align 8
  %14 = icmp eq ptr %13, null
  br i1 %14, label %15, label %_ZN8WasmEdge7Runtime8Instance14MemoryInstanceC2ERKNS_3AST10MemoryTypeEj.exit

15:                                               ; preds = %12
  %16 = invoke noundef ptr @_ZN6spdlog18default_logger_rawEv()
          to label %.noexc9.i unwind label %17

.noexc9.i:                                        ; preds = %15
  invoke void @_ZN6spdlog6logger5errorIA37_cEEvRKT_(ptr noundef nonnull align 8 dereferenceable(208) %16, ptr noundef nonnull align 1 dereferenceable(37) @.str.150)
          to label %_ZN8WasmEdge7Runtime8Instance14MemoryInstanceC2ERKNS_3AST10MemoryTypeEj.exit unwind label %17

17:                                               ; preds = %.noexc9.i, %15, %.noexc.i, %10
  %18 = landingpad { ptr, i32 }
          catch ptr null
  %19 = extractvalue { ptr, i32 } %18, 0
  tail call void @__clang_call_terminate(ptr %19) #39
  unreachable

_ZN8WasmEdge7Runtime8Instance14MemoryInstanceC2ERKNS_3AST10MemoryTypeEj.exit: ; preds = %.noexc9.i, %12, %_ZN6spdlog5errorIJRKjEEEvN3fmt2v819basic_format_stringIcJDpNS4_13type_identityIT_E4typeEEEEDpOS7_.exit.i, %1
  %.0 = phi ptr [ null, %1 ], [ %4, %_ZN6spdlog5errorIJRKjEEEvN3fmt2v819basic_format_stringIcJDpNS4_13type_identityIT_E4typeEEEEDpOS7_.exit.i ], [ %4, %12 ], [ %4, %.noexc9.i ]
  ret ptr %.0
}